target datalayout = "e-m:e-p270:32:32-p271:32:32-p272:64:64-i64:64-i128:128-f80:128-n8:16:32:64-S128"
target triple = "x86_64-pc-linux-gnu"

%"struct.gmx::EnumerationArray.340" = type { [5 x ptr] }
%struct.pme_load_balancing_t = type { i8, i8, i64, i8, i8, i32, i8, float, float, float, float, float, float, float, [3 x [3 x float]], %"class.std::vector", i32, i32, i32, i32, i32, i32, i32, i32, i32, double, double }
%"class.std::vector" = type { %"struct.std::_Vector_base" }
%"struct.std::_Vector_base" = type { %"struct.std::_Vector_base<pme_setup_t, std::allocator<pme_setup_t>>::_Vector_impl" }
%"struct.std::_Vector_base<pme_setup_t, std::allocator<pme_setup_t>>::_Vector_impl" = type { %"struct.std::_Vector_base<pme_setup_t, std::allocator<pme_setup_t>>::_Vector_impl_data" }
%"struct.std::_Vector_base<pme_setup_t, std::allocator<pme_setup_t>>::_Vector_impl_data" = type { ptr, ptr, ptr }
%"class.std::__cxx11::basic_string" = type { %"struct.std::__cxx11::basic_string<char>::_Alloc_hider", i64, %union.anon }
%"struct.std::__cxx11::basic_string<char>::_Alloc_hider" = type { ptr }
%union.anon = type { i64, [8 x i8] }
%struct.pme_setup_t = type { float, float, float, float, [3 x i32], float, float, float, ptr, i32, double }

@.str.23 = private unnamed_addr constant [5 x i8] c"\0D%s\0A\00", align 1
@.str.24 = private unnamed_addr constant [4 x i8] c"%s\0A\00", align 1
@.str.29 = private unnamed_addr constant [76 x i8] c"step %4s: the %s limits the PME load balancing to a coulomb cut-off of %.3f\00", align 1
@.str.30 = private unnamed_addr constant [4 x i8] c"%ld\00", align 1
@__const._ZL17enumValueToString21PmeLoadBalancingLimit.pmeLoadBalancingLimitNames = private unnamed_addr constant %"struct.gmx::EnumerationArray.340" { [5 x ptr] [ptr @.str.31, ptr @.str.32, ptr @.str.33, ptr @.str.34, ptr @.str.35] }, align 8

; Function Attrs: mustprogress nounwind uwtable
define linkonce_odr noundef i64 @_ZNKSt6vectorI11pme_setup_tSaIS0_EE4sizeEv(ptr noundef nonnull align 8 dereferenceable(24) %0) #0 comdat align 2 {
  %2 = alloca ptr, align 8
  store ptr %0, ptr %2, align 8
  %3 = load ptr, ptr %2, align 8
  %4 = getelementptr inbounds %"struct.std::_Vector_base", ptr %3, i32 0, i32 0
  %5 = getelementptr inbounds %"struct.std::_Vector_base<pme_setup_t, std::allocator<pme_setup_t>>::_Vector_impl_data", ptr %4, i32 0, i32 1
  %6 = load ptr, ptr %5, align 8
  %7 = getelementptr inbounds %"struct.std::_Vector_base", ptr %3, i32 0, i32 0
  %8 = getelementptr inbounds %"struct.std::_Vector_base<pme_setup_t, std::allocator<pme_setup_t>>::_Vector_impl_data", ptr %7, i32 0, i32 0
  %9 = load ptr, ptr %8, align 8
  %10 = ptrtoint ptr %6 to i64
  %11 = ptrtoint ptr %9 to i64
  %12 = sub i64 %10, %11
  %13 = sdiv exact i64 %12, 64
  ret i64 %13
}

; Function Attrs: mustprogress nounwind uwtable
define linkonce_odr noundef nonnull align 8 dereferenceable(8) ptr @_ZNK3gmx16EnumerationArrayI21PmeLoadBalancingLimitPKcLS1_5EEixES1_(ptr noundef nonnull align 8 dereferenceable(40) %0, i32 noundef %1) #0 comdat align 2 {
  %3 = alloca ptr, align 8
  %4 = alloca i32, align 4
  store ptr %0, ptr %3, align 8
  store i32 %1, ptr %4, align 4
  %5 = load ptr, ptr %3, align 8
  %6 = getelementptr inbounds %"struct.gmx::EnumerationArray.340", ptr %5, i32 0, i32 0
  %7 = load i32, ptr %4, align 4
  %8 = sext i32 %7 to i64
  %9 = getelementptr inbounds [5 x ptr], ptr %6, i64 0, i64 %8
  ret ptr %9
}

; Function Attrs: mustprogress nounwind uwtable
define linkonce_odr noundef nonnull align 8 dereferenceable(64) ptr @_ZNSt6vectorI11pme_setup_tSaIS0_EEixEm(ptr noundef nonnull align 8 dereferenceable(24) %0, i64 noundef %1) #0 comdat align 2 {
  %3 = alloca ptr, align 8
  %4 = alloca i64, align 8
  store ptr %0, ptr %3, align 8
  store i64 %1, ptr %4, align 8
  %5 = load ptr, ptr %3, align 8
  %6 = getelementptr inbounds %"struct.std::_Vector_base", ptr %5, i32 0, i32 0
  %7 = getelementptr inbounds %"struct.std::_Vector_base<pme_setup_t, std::allocator<pme_setup_t>>::_Vector_impl_data", ptr %6, i32 0, i32 0
  %8 = load ptr, ptr %7, align 8
  %9 = load i64, ptr %4, align 8
  %10 = getelementptr inbounds %struct.pme_setup_t, ptr %8, i64 %9
  ret ptr %10
}

; Function Attrs: mustprogress nounwind uwtable
define internal noundef i32 @_ZL15pme_loadbal_endP20pme_load_balancing_t(ptr noundef %0) #0 {
  %2 = alloca i32, align 4
  %3 = alloca ptr, align 8
  store ptr %0, ptr %3, align 8
  %4 = load ptr, ptr %3, align 8
  %5 = getelementptr inbounds %struct.pme_load_balancing_t, ptr %4, i32 0, i32 20
  %6 = load i32, ptr %5, align 8
  %7 = icmp sgt i32 %6, 0
  br i1 %7, label %8, label %12

8:                                                ; preds = %1
  %9 = load ptr, ptr %3, align 8
  %10 = getelementptr inbounds %struct.pme_load_balancing_t, ptr %9, i32 0, i32 20
  %11 = load i32, ptr %10, align 8
  store i32 %11, ptr %2, align 4
  br label %17

12:                                               ; preds = %1
  %13 = load ptr, ptr %3, align 8
  %14 = getelementptr inbounds %struct.pme_load_balancing_t, ptr %13, i32 0, i32 15
  %15 = call noundef i64 @_ZNKSt6vectorI11pme_setup_tSaIS0_EE4sizeEv(ptr noundef nonnull align 8 dereferenceable(24) %14) #12
  %16 = trunc i64 %15 to i32
  store i32 %16, ptr %2, align 4
  br label %17

17:                                               ; preds = %12, %8
  %18 = load i32, ptr %2, align 4
  ret i32 %18
}

; Function Attrs: mustprogress uwtable
define internal noundef ptr @_ZL17enumValueToString21PmeLoadBalancingLimit(i32 noundef %0) #1 {
  %2 = alloca i32, align 4
  %3 = alloca %"struct.gmx::EnumerationArray.340", align 8
  store i32 %0, ptr %2, align 4
  call void @llvm.memcpy.p0.p0.i64(ptr align 8 %3, ptr align 8 @__const._ZL17enumValueToString21PmeLoadBalancingLimit.pmeLoadBalancingLimitNames, i64 40, i1 false)
  %4 = load i32, ptr %2, align 4
  %5 = call noundef nonnull align 8 dereferenceable(8) ptr @_ZNK3gmx16EnumerationArrayI21PmeLoadBalancingLimitPKcLS1_5EEixES1_(ptr noundef nonnull align 8 dereferenceable(40) %3, i32 noundef %4)
  %6 = load ptr, ptr %5, align 8
  ret ptr %6
}

; Function Attrs: mustprogress uwtable
define internal void @_ZN3gmxL13int64ToStringB5cxx11El(ptr dead_on_unwind noalias writable sret(%"class.std::__cxx11::basic_string") align 8 %0, i64 noundef %1) #1 {
  %3 = alloca ptr, align 8
  %4 = alloca i64, align 8
  store ptr %0, ptr %3, align 8
  store i64 %1, ptr %4, align 8
  %5 = load i64, ptr %4, align 8
  call void (ptr, ptr, ...) @_ZN3gmx12formatStringB5cxx11EPKcz(ptr dead_on_unwind writable sret(%"class.std::__cxx11::basic_string") align 8 %0, ptr noundef @.str.30, i64 noundef %5)
  ret void
}

; Function Attrs: mustprogress uwtable
define internal void @_ZL21print_loadbal_limitedP8_IO_FILES0_lP20pme_load_balancing_t(ptr noundef %0, ptr noundef %1, i64 noundef %2, ptr noundef %3) #1 personality ptr @__gxx_personality_v0 {
  %5 = alloca ptr, align 8
  %6 = alloca ptr, align 8
  %7 = alloca i64, align 8
  %8 = alloca ptr, align 8
  %9 = alloca %"class.std::__cxx11::basic_string", align 8
  %10 = alloca %"class.std::__cxx11::basic_string", align 8
  %11 = alloca ptr, align 8
  %12 = alloca i32, align 4
  store ptr %0, ptr %5, align 8
  store ptr %1, ptr %6, align 8
  store i64 %2, ptr %7, align 8
  store ptr %3, ptr %8, align 8
  %13 = load i64, ptr %7, align 8
  call void @_ZN3gmxL13int64ToStringB5cxx11El(ptr dead_on_unwind writable sret(%"class.std::__cxx11::basic_string") align 8 %10, i64 noundef %13)
  %14 = call noundef ptr @_ZNKSt7__cxx1112basic_stringIcSt11char_traitsIcESaIcEE5c_strEv(ptr noundef nonnull align 8 dereferenceable(32) %10) #12
  %15 = load ptr, ptr %8, align 8
  %16 = getelementptr inbounds %struct.pme_load_balancing_t, ptr %15, i32 0, i32 21
  %17 = load i32, ptr %16, align 4
  %18 = invoke noundef ptr @_ZL17enumValueToString21PmeLoadBalancingLimit(i32 noundef %17)
          to label %19 unwind label %41

19:                                               ; preds = %4
  %20 = load ptr, ptr %8, align 8
  %21 = getelementptr inbounds %struct.pme_load_balancing_t, ptr %20, i32 0, i32 15
  %22 = load ptr, ptr %8, align 8
  %23 = invoke noundef i32 @_ZL15pme_loadbal_endP20pme_load_balancing_t(ptr noundef %22)
          to label %24 unwind label %41

24:                                               ; preds = %19
  %25 = sub nsw i32 %23, 1
  %26 = sext i32 %25 to i64
  %27 = call noundef nonnull align 8 dereferenceable(64) ptr @_ZNSt6vectorI11pme_setup_tSaIS0_EEixEm(ptr noundef nonnull align 8 dereferenceable(24) %21, i64 noundef %26) #12
  %28 = getelementptr inbounds %struct.pme_setup_t, ptr %27, i32 0, i32 0
  %29 = load float, ptr %28, align 8
  %30 = fpext float %29 to double
  invoke void (ptr, ptr, ...) @_ZN3gmx12formatStringB5cxx11EPKcz(ptr dead_on_unwind writable sret(%"class.std::__cxx11::basic_string") align 8 %9, ptr noundef @.str.29, ptr noundef %14, ptr noundef %18, double noundef %30)
          to label %31 unwind label %41

31:                                               ; preds = %24
  call void @_ZNSt7__cxx1112basic_stringIcSt11char_traitsIcESaIcEED1Ev(ptr noundef nonnull align 8 dereferenceable(32) %10) #12
  %32 = load ptr, ptr %5, align 8
  %33 = icmp ne ptr %32, null
  br i1 %33, label %34, label %49

34:                                               ; preds = %31
  %35 = load ptr, ptr %5, align 8
  %36 = call noundef ptr @_ZNKSt7__cxx1112basic_stringIcSt11char_traitsIcESaIcEE5c_strEv(ptr noundef nonnull align 8 dereferenceable(32) %9) #12
  %37 = call i32 (ptr, ptr, ...) @fprintf(ptr noundef %35, ptr noundef @.str.23, ptr noundef %36) #12
  %38 = load ptr, ptr %5, align 8
  %39 = invoke i32 @fflush(ptr noundef %38)
          to label %40 unwind label %45

40:                                               ; preds = %34
  br label %49

41:                                               ; preds = %24, %19, %4
  %42 = landingpad { ptr, i32 }
          cleanup
  %43 = extractvalue { ptr, i32 } %42, 0
  store ptr %43, ptr %11, align 8
  %44 = extractvalue { ptr, i32 } %42, 1
  store i32 %44, ptr %12, align 4
  call void @_ZNSt7__cxx1112basic_stringIcSt11char_traitsIcESaIcEED1Ev(ptr noundef nonnull align 8 dereferenceable(32) %10) #12
  br label %57

45:                                               ; preds = %34
  %46 = landingpad { ptr, i32 }
          cleanup
  %47 = extractvalue { ptr, i32 } %46, 0
  store ptr %47, ptr %11, align 8
  %48 = extractvalue { ptr, i32 } %46, 1
  store i32 %48, ptr %12, align 4
  call void @_ZNSt7__cxx1112basic_stringIcSt11char_traitsIcESaIcEED1Ev(ptr noundef nonnull align 8 dereferenceable(32) %9) #12
  br label %57

49:                                               ; preds = %40, %31
  %50 = load ptr, ptr %6, align 8
  %51 = icmp ne ptr %50, null
  br i1 %51, label %52, label %56

52:                                               ; preds = %49
  %53 = load ptr, ptr %6, align 8
  %54 = call noundef ptr @_ZNKSt7__cxx1112basic_stringIcSt11char_traitsIcESaIcEE5c_strEv(ptr noundef nonnull align 8 dereferenceable(32) %9) #12
  %55 = call i32 (ptr, ptr, ...) @fprintf(ptr noundef %53, ptr noundef @.str.24, ptr noundef %54) #12
  br label %56

56:                                               ; preds = %52, %49
  call void @_ZNSt7__cxx1112basic_stringIcSt11char_traitsIcESaIcEED1Ev(ptr noundef nonnull align 8 dereferenceable(32) %9) #12
  ret void

57:                                               ; preds = %45, %41
  %58 = load ptr, ptr %11, align 8
  %59 = load i32, ptr %12, align 4
  %60 = insertvalue { ptr, i32 } poison, ptr %58, 0
  %61 = insertvalue { ptr, i32 } %60, i32 %59, 1
  resume { ptr, i32 } %61
}