; Function Attrs: mustprogress uwtable
define internal fastcc void @_ZL21print_loadbal_limitedP8_IO_FILES0_lP20pme_load_balancing_t(ptr noundef %0, ptr noundef %1, i64 noundef %2, ptr nocapture noundef readonly %3) unnamed_addr #1 personality ptr @__gxx_personality_v0 {
  %5 = alloca %"class.std::__cxx11::basic_string", align 8
  %6 = alloca %"class.std::__cxx11::basic_string", align 8
  call void (ptr, ptr, ...) @_ZN3gmx12formatStringB5cxx11EPKcz(ptr dead_on_unwind nonnull writable sret(%"class.std::__cxx11::basic_string") align 8 %6, ptr noundef nonnull @.str.30, i64 noundef %2)
  %7 = call noundef ptr @_ZNKSt7__cxx1112basic_stringIcSt11char_traitsIcESaIcEE5c_strEv(ptr noundef nonnull align 8 dereferenceable(32) %6) #22
  %8 = getelementptr inbounds i8, ptr %3, i64 140
  %9 = load i32, ptr %8, align 4
  %10 = sext i32 %9 to i64
  %11 = getelementptr inbounds [5 x ptr], ptr @__const._ZL17enumValueToString21PmeLoadBalancingLimit.pmeLoadBalancingLimitNames, i64 0, i64 %10
  %12 = load ptr, ptr %11, align 8
  %13 = getelementptr inbounds i8, ptr %3, i64 96
  %14 = getelementptr inbounds i8, ptr %3, i64 136
  %15 = load i32, ptr %14, align 8
  %16 = icmp sgt i32 %15, 0
  %.pre = load ptr, ptr %13, align 8
  br i1 %16, label %_ZL15pme_loadbal_endP20pme_load_balancing_t.exit, label %17

17:                                               ; preds = %4
  %18 = getelementptr inbounds i8, ptr %3, i64 104
  %19 = load ptr, ptr %18, align 8
  %20 = ptrtoint ptr %19 to i64
  %21 = ptrtoint ptr %.pre to i64
  %22 = sub i64 %20, %21
  %23 = lshr exact i64 %22, 6
  %24 = trunc i64 %23 to i32
  br label %_ZL15pme_loadbal_endP20pme_load_balancing_t.exit

_ZL15pme_loadbal_endP20pme_load_balancing_t.exit: ; preds = %4, %17
  %.0.i = phi i32 [ %24, %17 ], [ %15, %4 ]
  %25 = sext i32 %.0.i to i64
  %26 = getelementptr %struct.pme_setup_t, ptr %.pre, i64 %25
  %27 = getelementptr i8, ptr %26, i64 -64
  %28 = load float, ptr %27, align 8
  %29 = fpext float %28 to double
  invoke void (ptr, ptr, ...) @_ZN3gmx12formatStringB5cxx11EPKcz(ptr dead_on_unwind nonnull writable sret(%"class.std::__cxx11::basic_string") align 8 %5, ptr noundef nonnull @.str.29, ptr noundef %7, ptr noundef %12, double noundef %29)
          to label %30 unwind label %35

30:                                               ; preds = %_ZL15pme_loadbal_endP20pme_load_balancing_t.exit
  call void @_ZNSt7__cxx1112basic_stringIcSt11char_traitsIcESaIcEED1Ev(ptr noundef nonnull align 8 dereferenceable(32) %6) #22
  %.not = icmp eq ptr %0, null
  br i1 %.not, label %37, label %31

31:                                               ; preds = %30
  %32 = call noundef ptr @_ZNKSt7__cxx1112basic_stringIcSt11char_traitsIcESaIcEE5c_strEv(ptr noundef nonnull align 8 dereferenceable(32) %5) #22
  %33 = call i32 (ptr, ptr, ...) @fprintf(ptr noundef nonnull %0, ptr noundef nonnull @.str.23, ptr noundef %32) #22
  %34 = call i32 @fflush(ptr noundef nonnull %0)
  br label %37

35:                                               ; preds = %_ZL15pme_loadbal_endP20pme_load_balancing_t.exit
  %36 = landingpad { ptr, i32 }
          cleanup
  call void @_ZNSt7__cxx1112basic_stringIcSt11char_traitsIcESaIcEED1Ev(ptr noundef nonnull align 8 dereferenceable(32) %6) #22
  resume { ptr, i32 } %36

37:                                               ; preds = %31, %30
  %.not11 = icmp eq ptr %1, null
  br i1 %.not11, label %41, label %38

38:                                               ; preds = %37
  %39 = call noundef ptr @_ZNKSt7__cxx1112basic_stringIcSt11char_traitsIcESaIcEE5c_strEv(ptr noundef nonnull align 8 dereferenceable(32) %5) #22
  %40 = call i32 (ptr, ptr, ...) @fprintf(ptr noundef nonnull %1, ptr noundef nonnull @.str.24, ptr noundef %39) #22
  br label %41

41:                                               ; preds = %38, %37
  call void @_ZNSt7__cxx1112basic_stringIcSt11char_traitsIcESaIcEED1Ev(ptr noundef nonnull align 8 dereferenceable(32) %5) #22
  ret void
}